target datalayout = "e-m:e-p270:32:32-p271:32:32-p272:64:64-i64:64-i128:128-f80:128-n8:16:32:64-S128"
target triple = "x86_64-pc-linux-gnu"

%"class.rocksdb::BlobContents" = type { %"class.std::unique_ptr", %"class.rocksdb::Slice" }
%"class.std::unique_ptr" = type { %"struct.std::__uniq_ptr_data" }
%"struct.std::__uniq_ptr_data" = type { %"class.std::__uniq_ptr_impl" }
%"class.std::__uniq_ptr_impl" = type { %"class.std::tuple" }
%"class.std::tuple" = type { %"struct.std::_Tuple_impl" }
%"struct.std::_Tuple_impl" = type { %"struct.std::_Tuple_impl.0", %"struct.std::_Head_base.1" }
%"struct.std::_Tuple_impl.0" = type { %"struct.std::_Head_base" }
%"struct.std::_Head_base" = type { %"struct.rocksdb::CustomDeleter" }
%"struct.rocksdb::CustomDeleter" = type { ptr }
%"struct.std::_Head_base.1" = type { ptr }
%"class.rocksdb::Slice" = type { ptr, i64 }

$_ZNKSt10unique_ptrIA_cN7rocksdb13CustomDeleterEEcvbEv = comdat any

$_ZNKSt10unique_ptrIA_cN7rocksdb13CustomDeleterEE11get_deleterEv = comdat any

$_ZNKSt10unique_ptrIA_cN7rocksdb13CustomDeleterEE3getEv = comdat any

$_ZNK7rocksdb5Slice4sizeEv = comdat any

$_ZNKSt15__uniq_ptr_implIcN7rocksdb13CustomDeleterEE6_M_ptrEv = comdat any

$_ZSt3getILm0EJPcN7rocksdb13CustomDeleterEEERKNSt13tuple_elementIXT_ESt5tupleIJDpT0_EEE4typeERKS7_ = comdat any

$_ZSt12__get_helperILm0EPcJN7rocksdb13CustomDeleterEEERKT0_RKSt11_Tuple_implIXT_EJS3_DpT1_EE = comdat any

$_ZNSt11_Tuple_implILm0EJPcN7rocksdb13CustomDeleterEEE7_M_headERKS3_ = comdat any

$_ZNSt10_Head_baseILm0EPcLb0EE7_M_headERKS1_ = comdat any

$_ZNKSt15__uniq_ptr_implIcN7rocksdb13CustomDeleterEE10_M_deleterEv = comdat any

$_ZSt3getILm1EJPcN7rocksdb13CustomDeleterEEERKNSt13tuple_elementIXT_ESt5tupleIJDpT0_EEE4typeERKS7_ = comdat any

$_ZSt12__get_helperILm1EN7rocksdb13CustomDeleterEJEERKT0_RKSt11_Tuple_implIXT_EJS2_DpT1_EE = comdat any

$_ZNSt11_Tuple_implILm1EJN7rocksdb13CustomDeleterEEE7_M_headERKS2_ = comdat any

$_ZNSt10_Head_baseILm1EN7rocksdb13CustomDeleterELb0EE7_M_headERKS2_ = comdat any

; Function Attrs: mustprogress uwtable
define noundef i64 @_ZNK7rocksdb12BlobContents22ApproximateMemoryUsageEv(ptr noundef nonnull align 8 dereferenceable(32) %0) #0 align 2 {
  %2 = alloca ptr, align 8
  %3 = alloca i64, align 8
  %4 = alloca ptr, align 8
  store ptr %0, ptr %2, align 8, !tbaa !4
  %5 = load ptr, ptr %2, align 8
  call void @llvm.lifetime.start.p0(i64 8, ptr %3) #4
  store i64 0, ptr %3, align 8, !tbaa !9
  %6 = getelementptr inbounds nuw %"class.rocksdb::BlobContents", ptr %5, i32 0, i32 0
  %7 = call noundef zeroext i1 @_ZNKSt10unique_ptrIA_cN7rocksdb13CustomDeleterEEcvbEv(ptr noundef nonnull align 8 dereferenceable(16) %6) #4
  br i1 %7, label %8, label %34

8:                                                ; preds = %1
  call void @llvm.lifetime.start.p0(i64 8, ptr %4) #4
  %9 = getelementptr inbounds nuw %"class.rocksdb::BlobContents", ptr %5, i32 0, i32 0
  %10 = call noundef nonnull align 8 dereferenceable(8) ptr @_ZNKSt10unique_ptrIA_cN7rocksdb13CustomDeleterEE11get_deleterEv(ptr noundef nonnull align 8 dereferenceable(16) %9) #4
  %11 = getelementptr inbounds nuw %"struct.rocksdb::CustomDeleter", ptr %10, i32 0, i32 0
  %12 = load ptr, ptr %11, align 8, !tbaa !11
  store ptr %12, ptr %4, align 8, !tbaa !14
  %13 = load ptr, ptr %4, align 8, !tbaa !14
  %14 = icmp ne ptr %13, null
  br i1 %14, label %15, label %27

15:                                               ; preds = %8
  %16 = load ptr, ptr %4, align 8, !tbaa !14
  %17 = getelementptr inbounds nuw %"class.rocksdb::BlobContents", ptr %5, i32 0, i32 0
  %18 = call noundef ptr @_ZNKSt10unique_ptrIA_cN7rocksdb13CustomDeleterEE3getEv(ptr noundef nonnull align 8 dereferenceable(16) %17) #4
  %19 = getelementptr inbounds nuw %"class.rocksdb::BlobContents", ptr %5, i32 0, i32 1
  %20 = call noundef i64 @_ZNK7rocksdb5Slice4sizeEv(ptr noundef nonnull align 8 dereferenceable(16) %19)
  %21 = load ptr, ptr %16, align 8, !tbaa !15
  %22 = getelementptr inbounds ptr, ptr %21, i64 21
  %23 = load ptr, ptr %22, align 8
  %24 = call noundef i64 %23(ptr noundef nonnull align 8 dereferenceable(32) %16, ptr noundef %18, i64 noundef %20)
  %25 = load i64, ptr %3, align 8, !tbaa !9
  %26 = add i64 %25, %24
  store i64 %26, ptr %3, align 8, !tbaa !9
  br label %33

27:                                               ; preds = %8
  %28 = getelementptr inbounds nuw %"class.rocksdb::BlobContents", ptr %5, i32 0, i32 0
  %29 = call noundef ptr @_ZNKSt10unique_ptrIA_cN7rocksdb13CustomDeleterEE3getEv(ptr noundef nonnull align 8 dereferenceable(16) %28) #4
  %30 = call i64 @malloc_usable_size(ptr noundef %29) #4
  %31 = load i64, ptr %3, align 8, !tbaa !9
  %32 = add i64 %31, %30
  store i64 %32, ptr %3, align 8, !tbaa !9
  br label %33

33:                                               ; preds = %27, %15
  call void @llvm.lifetime.end.p0(i64 8, ptr %4) #4
  br label %34

34:                                               ; preds = %33, %1
  %35 = call i64 @malloc_usable_size(ptr noundef %5) #4
  %36 = load i64, ptr %3, align 8, !tbaa !9
  %37 = add i64 %36, %35
  store i64 %37, ptr %3, align 8, !tbaa !9
  %38 = load i64, ptr %3, align 8, !tbaa !9
  call void @llvm.lifetime.end.p0(i64 8, ptr %3) #4
  ret i64 %38
}

; Function Attrs: nocallback nofree nosync nounwind willreturn memory(argmem: readwrite)
declare void @llvm.lifetime.start.p0(i64 immarg, ptr captures(none)) #1

; Function Attrs: mustprogress nounwind uwtable
define linkonce_odr noundef zeroext i1 @_ZNKSt10unique_ptrIA_cN7rocksdb13CustomDeleterEEcvbEv(ptr noundef nonnull align 8 dereferenceable(16) %0) #2 comdat align 2 {
  %2 = alloca ptr, align 8
  store ptr %0, ptr %2, align 8, !tbaa !17
  %3 = load ptr, ptr %2, align 8
  %4 = call noundef ptr @_ZNKSt10unique_ptrIA_cN7rocksdb13CustomDeleterEE3getEv(ptr noundef nonnull align 8 dereferenceable(16) %3) #4
  %5 = icmp eq ptr %4, null
  %6 = select i1 %5, i1 false, i1 true
  ret i1 %6
}

; Function Attrs: mustprogress nounwind uwtable
define linkonce_odr noundef nonnull align 8 dereferenceable(8) ptr @_ZNKSt10unique_ptrIA_cN7rocksdb13CustomDeleterEE11get_deleterEv(ptr noundef nonnull align 8 dereferenceable(16) %0) #2 comdat align 2 {
  %2 = alloca ptr, align 8
  store ptr %0, ptr %2, align 8, !tbaa !17
  %3 = load ptr, ptr %2, align 8
  %4 = getelementptr inbounds nuw %"class.std::unique_ptr", ptr %3, i32 0, i32 0
  %5 = call noundef nonnull align 8 dereferenceable(8) ptr @_ZNKSt15__uniq_ptr_implIcN7rocksdb13CustomDeleterEE10_M_deleterEv(ptr noundef nonnull align 8 dereferenceable(16) %4) #4
  ret ptr %5
}

; Function Attrs: mustprogress nounwind uwtable
define linkonce_odr noundef ptr @_ZNKSt10unique_ptrIA_cN7rocksdb13CustomDeleterEE3getEv(ptr noundef nonnull align 8 dereferenceable(16) %0) #2 comdat align 2 {
  %2 = alloca ptr, align 8
  store ptr %0, ptr %2, align 8, !tbaa !17
  %3 = load ptr, ptr %2, align 8
  %4 = getelementptr inbounds nuw %"class.std::unique_ptr", ptr %3, i32 0, i32 0
  %5 = call noundef ptr @_ZNKSt15__uniq_ptr_implIcN7rocksdb13CustomDeleterEE6_M_ptrEv(ptr noundef nonnull align 8 dereferenceable(16) %4) #4
  ret ptr %5
}

; Function Attrs: mustprogress nounwind uwtable
define linkonce_odr noundef i64 @_ZNK7rocksdb5Slice4sizeEv(ptr noundef nonnull align 8 dereferenceable(16) %0) #2 comdat align 2 {
  %2 = alloca ptr, align 8
  store ptr %0, ptr %2, align 8, !tbaa !19
  %3 = load ptr, ptr %2, align 8
  %4 = getelementptr inbounds nuw %"class.rocksdb::Slice", ptr %3, i32 0, i32 1
  %5 = load i64, ptr %4, align 8, !tbaa !21
  ret i64 %5
}

; Function Attrs: nounwind
declare i64 @malloc_usable_size(ptr noundef) #3

; Function Attrs: nocallback nofree nosync nounwind willreturn memory(argmem: readwrite)
declare void @llvm.lifetime.end.p0(i64 immarg, ptr captures(none)) #1

; Function Attrs: mustprogress nounwind uwtable
define linkonce_odr noundef ptr @_ZNKSt15__uniq_ptr_implIcN7rocksdb13CustomDeleterEE6_M_ptrEv(ptr noundef nonnull align 8 dereferenceable(16) %0) #2 comdat align 2 {
  %2 = alloca ptr, align 8
  store ptr %0, ptr %2, align 8, !tbaa !24
  %3 = load ptr, ptr %2, align 8
  %4 = getelementptr inbounds nuw %"class.std::__uniq_ptr_impl", ptr %3, i32 0, i32 0
  %5 = call noundef nonnull align 8 dereferenceable(8) ptr @_ZSt3getILm0EJPcN7rocksdb13CustomDeleterEEERKNSt13tuple_elementIXT_ESt5tupleIJDpT0_EEE4typeERKS7_(ptr noundef nonnull align 8 dereferenceable(16) %4) #4
  %6 = load ptr, ptr %5, align 8, !tbaa !26
  ret ptr %6
}

; Function Attrs: mustprogress nounwind uwtable
define linkonce_odr noundef nonnull align 8 dereferenceable(8) ptr @_ZSt3getILm0EJPcN7rocksdb13CustomDeleterEEERKNSt13tuple_elementIXT_ESt5tupleIJDpT0_EEE4typeERKS7_(ptr noundef nonnull align 8 dereferenceable(16) %0) #2 comdat {
  %2 = alloca ptr, align 8
  store ptr %0, ptr %2, align 8, !tbaa !27
  %3 = load ptr, ptr %2, align 8, !tbaa !27
  %4 = call noundef nonnull align 8 dereferenceable(8) ptr @_ZSt12__get_helperILm0EPcJN7rocksdb13CustomDeleterEEERKT0_RKSt11_Tuple_implIXT_EJS3_DpT1_EE(ptr noundef nonnull align 8 dereferenceable(16) %3) #4
  ret ptr %4
}

; Function Attrs: mustprogress nounwind uwtable
define linkonce_odr noundef nonnull align 8 dereferenceable(8) ptr @_ZSt12__get_helperILm0EPcJN7rocksdb13CustomDeleterEEERKT0_RKSt11_Tuple_implIXT_EJS3_DpT1_EE(ptr noundef nonnull align 8 dereferenceable(16) %0) #2 comdat {
  %2 = alloca ptr, align 8
  store ptr %0, ptr %2, align 8, !tbaa !29
  %3 = load ptr, ptr %2, align 8, !tbaa !29
  %4 = call noundef nonnull align 8 dereferenceable(8) ptr @_ZNSt11_Tuple_implILm0EJPcN7rocksdb13CustomDeleterEEE7_M_headERKS3_(ptr noundef nonnull align 8 dereferenceable(16) %3) #4
  ret ptr %4
}

; Function Attrs: mustprogress nounwind uwtable
define linkonce_odr noundef nonnull align 8 dereferenceable(8) ptr @_ZNSt11_Tuple_implILm0EJPcN7rocksdb13CustomDeleterEEE7_M_headERKS3_(ptr noundef nonnull align 8 dereferenceable(16) %0) #2 comdat align 2 {
  %2 = alloca ptr, align 8
  store ptr %0, ptr %2, align 8, !tbaa !29
  %3 = load ptr, ptr %2, align 8, !tbaa !29
  %4 = getelementptr inbounds i8, ptr %3, i64 8
  %5 = call noundef nonnull align 8 dereferenceable(8) ptr @_ZNSt10_Head_baseILm0EPcLb0EE7_M_headERKS1_(ptr noundef nonnull align 8 dereferenceable(8) %4) #4
  ret ptr %5
}

; Function Attrs: mustprogress nounwind uwtable
define linkonce_odr noundef nonnull align 8 dereferenceable(8) ptr @_ZNSt10_Head_baseILm0EPcLb0EE7_M_headERKS1_(ptr noundef nonnull align 8 dereferenceable(8) %0) #2 comdat align 2 {
  %2 = alloca ptr, align 8
  store ptr %0, ptr %2, align 8, !tbaa !31
  %3 = load ptr, ptr %2, align 8, !tbaa !31
  %4 = getelementptr inbounds nuw %"struct.std::_Head_base.1", ptr %3, i32 0, i32 0
  ret ptr %4
}

; Function Attrs: mustprogress nounwind uwtable
define linkonce_odr noundef nonnull align 8 dereferenceable(8) ptr @_ZNKSt15__uniq_ptr_implIcN7rocksdb13CustomDeleterEE10_M_deleterEv(ptr noundef nonnull align 8 dereferenceable(16) %0) #2 comdat align 2 {
  %2 = alloca ptr, align 8
  store ptr %0, ptr %2, align 8, !tbaa !24
  %3 = load ptr, ptr %2, align 8
  %4 = getelementptr inbounds nuw %"class.std::__uniq_ptr_impl", ptr %3, i32 0, i32 0
  %5 = call noundef nonnull align 8 dereferenceable(8) ptr @_ZSt3getILm1EJPcN7rocksdb13CustomDeleterEEERKNSt13tuple_elementIXT_ESt5tupleIJDpT0_EEE4typeERKS7_(ptr noundef nonnull align 8 dereferenceable(16) %4) #4
  ret ptr %5
}

; Function Attrs: mustprogress nounwind uwtable
define linkonce_odr noundef nonnull align 8 dereferenceable(8) ptr @_ZSt3getILm1EJPcN7rocksdb13CustomDeleterEEERKNSt13tuple_elementIXT_ESt5tupleIJDpT0_EEE4typeERKS7_(ptr noundef nonnull align 8 dereferenceable(16) %0) #2 comdat {
  %2 = alloca ptr, align 8
  store ptr %0, ptr %2, align 8, !tbaa !27
  %3 = load ptr, ptr %2, align 8, !tbaa !27
  %4 = call noundef nonnull align 8 dereferenceable(8) ptr @_ZSt12__get_helperILm1EN7rocksdb13CustomDeleterEJEERKT0_RKSt11_Tuple_implIXT_EJS2_DpT1_EE(ptr noundef nonnull align 8 dereferenceable(8) %3) #4
  ret ptr %4
}

; Function Attrs: mustprogress nounwind uwtable
define linkonce_odr noundef nonnull align 8 dereferenceable(8) ptr @_ZSt12__get_helperILm1EN7rocksdb13CustomDeleterEJEERKT0_RKSt11_Tuple_implIXT_EJS2_DpT1_EE(ptr noundef nonnull align 8 dereferenceable(8) %0) #2 comdat {
  %2 = alloca ptr, align 8
  store ptr %0, ptr %2, align 8, !tbaa !33
  %3 = load ptr, ptr %2, align 8, !tbaa !33
  %4 = call noundef nonnull align 8 dereferenceable(8) ptr @_ZNSt11_Tuple_implILm1EJN7rocksdb13CustomDeleterEEE7_M_headERKS2_(ptr noundef nonnull align 8 dereferenceable(8) %3) #4
  ret ptr %4
}

; Function Attrs: mustprogress nounwind uwtable
define linkonce_odr noundef nonnull align 8 dereferenceable(8) ptr @_ZNSt11_Tuple_implILm1EJN7rocksdb13CustomDeleterEEE7_M_headERKS2_(ptr noundef nonnull align 8 dereferenceable(8) %0) #2 comdat align 2 {
  %2 = alloca ptr, align 8
  store ptr %0, ptr %2, align 8, !tbaa !33
  %3 = load ptr, ptr %2, align 8, !tbaa !33
  %4 = call noundef nonnull align 8 dereferenceable(8) ptr @_ZNSt10_Head_baseILm1EN7rocksdb13CustomDeleterELb0EE7_M_headERKS2_(ptr noundef nonnull align 8 dereferenceable(8) %3) #4
  ret ptr %4
}

; Function Attrs: mustprogress nounwind uwtable
define linkonce_odr noundef nonnull align 8 dereferenceable(8) ptr @_ZNSt10_Head_baseILm1EN7rocksdb13CustomDeleterELb0EE7_M_headERKS2_(ptr noundef nonnull align 8 dereferenceable(8) %0) #2 comdat align 2 {
  %2 = alloca ptr, align 8
  store ptr %0, ptr %2, align 8, !tbaa !35
  %3 = load ptr, ptr %2, align 8, !tbaa !35
  %4 = getelementptr inbounds nuw %"struct.std::_Head_base", ptr %3, i32 0, i32 0
  ret ptr %4
}


!llvm.module.flags = !{!0, !1, !2, !3}

!0 = !{i32 1, !"wchar_size", i32 4}
!1 = !{i32 8, !"PIC Level", i32 2}
!2 = !{i32 7, !"uwtable", i32 2}
!3 = !{i32 7, !"frame-pointer", i32 1}
!4 = !{!5, !5, i64 0}
!5 = !{!"p1 _ZTSN7rocksdb12BlobContentsE", !6, i64 0}
!6 = !{!"any pointer", !7, i64 0}
!7 = !{!"omnipotent char", !8, i64 0}
!8 = !{!"Simple C++ TBAA"}
!9 = !{!10, !10, i64 0}
!10 = !{!"long", !7, i64 0}
!11 = !{!12, !13, i64 0}
!12 = !{!"_ZTSN7rocksdb13CustomDeleterE", !13, i64 0}
!13 = !{!"p1 _ZTSN7rocksdb15MemoryAllocatorE", !6, i64 0}
!14 = !{!13, !13, i64 0}
!15 = !{!16, !16, i64 0}
!16 = !{!"vtable pointer", !8, i64 0}
!17 = !{!18, !18, i64 0}
!18 = !{!"p1 _ZTSSt10unique_ptrIA_cN7rocksdb13CustomDeleterEE", !6, i64 0}
!19 = !{!20, !20, i64 0}
!20 = !{!"p1 _ZTSN7rocksdb5SliceE", !6, i64 0}
!21 = !{!22, !10, i64 8}
!22 = !{!"_ZTSN7rocksdb5SliceE", !23, i64 0, !10, i64 8}
!23 = !{!"p1 omnipotent char", !6, i64 0}
!24 = !{!25, !25, i64 0}
!25 = !{!"p1 _ZTSSt15__uniq_ptr_implIcN7rocksdb13CustomDeleterEE", !6, i64 0}
!26 = !{!23, !23, i64 0}
!27 = !{!28, !28, i64 0}
!28 = !{!"p1 _ZTSSt5tupleIJPcN7rocksdb13CustomDeleterEEE", !6, i64 0}
!29 = !{!30, !30, i64 0}
!30 = !{!"p1 _ZTSSt11_Tuple_implILm0EJPcN7rocksdb13CustomDeleterEEE", !6, i64 0}
!31 = !{!32, !32, i64 0}
!32 = !{!"p1 _ZTSSt10_Head_baseILm0EPcLb0EE", !6, i64 0}
!33 = !{!34, !34, i64 0}
!34 = !{!"p1 _ZTSSt11_Tuple_implILm1EJN7rocksdb13CustomDeleterEEE", !6, i64 0}
!35 = !{!36, !36, i64 0}
!36 = !{!"p1 _ZTSSt10_Head_baseILm1EN7rocksdb13CustomDeleterELb0EE", !6, i64 0}
