; ModuleID = 'bench/rocksdb/original/blob_contents.ll'
source_filename = "bench/rocksdb/original/blob_contents.ll"
target datalayout = "e-m:e-p270:32:32-p271:32:32-p272:64:64-i64:64-i128:128-f80:128-n8:16:32:64-S128"
target triple = "x86_64-pc-linux-gnu"

; Function Attrs: mustprogress uwtable
define noundef i64 @_ZNK7rocksdb12BlobContents22ApproximateMemoryUsageEv(ptr noundef nonnull align 8 dereferenceable(32) %0) local_unnamed_addr #0 align 2 {
  %2 = getelementptr inbounds nuw i8, ptr %0, i64 8
  %3 = load ptr, ptr %2, align 8, !tbaa !4
  %.not7 = icmp eq ptr %3, null
  br i1 %.not7, label %15, label %4

4:                                                ; preds = %1
  %5 = load ptr, ptr %0, align 8, !tbaa !9
  %.not = icmp eq ptr %5, null
  br i1 %.not, label %13, label %6

6:                                                ; preds = %4
  %7 = getelementptr inbounds nuw i8, ptr %0, i64 24
  %8 = load i64, ptr %7, align 8, !tbaa !12
  %9 = load ptr, ptr %5, align 8, !tbaa !15
  %10 = getelementptr inbounds nuw i8, ptr %9, i64 168
  %11 = load ptr, ptr %10, align 8
  %12 = tail call noundef i64 %11(ptr noundef nonnull align 8 dereferenceable(32) %5, ptr noundef nonnull %3, i64 noundef %8)
  br label %15

13:                                               ; preds = %4
  %14 = tail call i64 @malloc_usable_size(ptr noundef nonnull %3) #2
  br label %15

15:                                               ; preds = %6, %13, %1
  %.0 = phi i64 [ 0, %1 ], [ %12, %6 ], [ %14, %13 ]
  %16 = tail call i64 @malloc_usable_size(ptr noundef nonnull %0) #2
  %17 = add i64 %16, %.0
  ret i64 %17
}

; Function Attrs: nounwind
declare i64 @malloc_usable_size(ptr noundef) local_unnamed_addr #1


!llvm.module.flags = !{!0, !1, !2, !3}

!0 = !{i32 1, !"wchar_size", i32 4}
!1 = !{i32 8, !"PIC Level", i32 2}
!2 = !{i32 7, !"uwtable", i32 2}
!3 = !{i32 7, !"frame-pointer", i32 1}
!4 = !{!5, !5, i64 0}
!5 = !{!"p1 omnipotent char", !6, i64 0}
!6 = !{!"any pointer", !7, i64 0}
!7 = !{!"omnipotent char", !8, i64 0}
!8 = !{!"Simple C++ TBAA"}
!9 = !{!10, !11, i64 0}
!10 = !{!"_ZTSN7rocksdb13CustomDeleterE", !11, i64 0}
!11 = !{!"p1 _ZTSN7rocksdb15MemoryAllocatorE", !6, i64 0}
!12 = !{!13, !14, i64 8}
!13 = !{!"_ZTSN7rocksdb5SliceE", !5, i64 0, !14, i64 8}
!14 = !{!"long", !7, i64 0}
!15 = !{!16, !16, i64 0}
!16 = !{!"vtable pointer", !8, i64 0}
